target datalayout = "e-m:e-p270:32:32-p271:32:32-p272:64:64-i64:64-i128:128-f80:128-n8:16:32:64-S128"
target triple = "x86_64-unknown-linux-gnu"

%class.btCollisionWorldImporter = type { ptr, ptr, i32, [4 x i8], %class.btAlignedObjectArray, %class.btAlignedObjectArray.0, %class.btAlignedObjectArray.4, %class.btAlignedObjectArray.8, %class.btAlignedObjectArray.12, %class.btAlignedObjectArray.16, %class.btAlignedObjectArray.0, %class.btAlignedObjectArray.20, %class.btAlignedObjectArray.24, %class.btAlignedObjectArray.28, %class.btAlignedObjectArray.32, %class.btAlignedObjectArray.36, %class.btAlignedObjectArray.40, %class.btHashMap, %class.btHashMap.52, %class.btHashMap.53, %class.btHashMap.58, %class.btHashMap.59, %class.btHashMap.64, %class.btHashMap.65 }
%class.btAlignedObjectArray = type <{ %class.btAlignedAllocator, [3 x i8], i32, i32, [4 x i8], ptr, i8, [7 x i8] }>
%class.btAlignedAllocator = type { i8 }
%class.btAlignedObjectArray.4 = type <{ %class.btAlignedAllocator.5, [3 x i8], i32, i32, [4 x i8], ptr, i8, [7 x i8] }>
%class.btAlignedAllocator.5 = type { i8 }
%class.btAlignedObjectArray.8 = type <{ %class.btAlignedAllocator.9, [3 x i8], i32, i32, [4 x i8], ptr, i8, [7 x i8] }>
%class.btAlignedAllocator.9 = type { i8 }
%class.btAlignedObjectArray.12 = type <{ %class.btAlignedAllocator.13, [3 x i8], i32, i32, [4 x i8], ptr, i8, [7 x i8] }>
%class.btAlignedAllocator.13 = type { i8 }
%class.btAlignedObjectArray.16 = type <{ %class.btAlignedAllocator.17, [3 x i8], i32, i32, [4 x i8], ptr, i8, [7 x i8] }>
%class.btAlignedAllocator.17 = type { i8 }
%class.btAlignedObjectArray.0 = type <{ %class.btAlignedAllocator.1, [3 x i8], i32, i32, [4 x i8], ptr, i8, [7 x i8] }>
%class.btAlignedAllocator.1 = type { i8 }
%class.btAlignedObjectArray.20 = type <{ %class.btAlignedAllocator.21, [3 x i8], i32, i32, [4 x i8], ptr, i8, [7 x i8] }>
%class.btAlignedAllocator.21 = type { i8 }
%class.btAlignedObjectArray.24 = type <{ %class.btAlignedAllocator.25, [3 x i8], i32, i32, [4 x i8], ptr, i8, [7 x i8] }>
%class.btAlignedAllocator.25 = type { i8 }
%class.btAlignedObjectArray.28 = type <{ %class.btAlignedAllocator.29, [3 x i8], i32, i32, [4 x i8], ptr, i8, [7 x i8] }>
%class.btAlignedAllocator.29 = type { i8 }
%class.btAlignedObjectArray.32 = type <{ %class.btAlignedAllocator.33, [3 x i8], i32, i32, [4 x i8], ptr, i8, [7 x i8] }>
%class.btAlignedAllocator.33 = type { i8 }
%class.btAlignedObjectArray.36 = type <{ %class.btAlignedAllocator.37, [3 x i8], i32, i32, [4 x i8], ptr, i8, [7 x i8] }>
%class.btAlignedAllocator.37 = type { i8 }
%class.btAlignedObjectArray.40 = type <{ %class.btAlignedAllocator.41, [3 x i8], i32, i32, [4 x i8], ptr, i8, [7 x i8] }>
%class.btAlignedAllocator.41 = type { i8 }
%class.btHashMap = type { %class.btAlignedObjectArray.44, %class.btAlignedObjectArray.44, %class.btAlignedObjectArray.4, %class.btAlignedObjectArray.48 }
%class.btAlignedObjectArray.44 = type <{ %class.btAlignedAllocator.45, [3 x i8], i32, i32, [4 x i8], ptr, i8, [7 x i8] }>
%class.btAlignedAllocator.45 = type { i8 }
%class.btAlignedObjectArray.48 = type <{ %class.btAlignedAllocator.49, [3 x i8], i32, i32, [4 x i8], ptr, i8, [7 x i8] }>
%class.btAlignedAllocator.49 = type { i8 }
%class.btHashMap.52 = type { %class.btAlignedObjectArray.44, %class.btAlignedObjectArray.44, %class.btAlignedObjectArray.8, %class.btAlignedObjectArray.48 }
%class.btHashMap.53 = type { %class.btAlignedObjectArray.44, %class.btAlignedObjectArray.44, %class.btAlignedObjectArray, %class.btAlignedObjectArray.54 }
%class.btAlignedObjectArray.54 = type <{ %class.btAlignedAllocator.55, [3 x i8], i32, i32, [4 x i8], ptr, i8, [7 x i8] }>
%class.btAlignedAllocator.55 = type { i8 }
%class.btHashMap.58 = type { %class.btAlignedObjectArray.44, %class.btAlignedObjectArray.44, %class.btAlignedObjectArray.0, %class.btAlignedObjectArray.54 }
%class.btHashMap.59 = type { %class.btAlignedObjectArray.44, %class.btAlignedObjectArray.44, %class.btAlignedObjectArray.60, %class.btAlignedObjectArray.48 }
%class.btAlignedObjectArray.60 = type <{ %class.btAlignedAllocator.61, [3 x i8], i32, i32, [4 x i8], ptr, i8, [7 x i8] }>
%class.btAlignedAllocator.61 = type { i8 }
%class.btHashMap.64 = type { %class.btAlignedObjectArray.44, %class.btAlignedObjectArray.44, %class.btAlignedObjectArray, %class.btAlignedObjectArray.48 }
%class.btHashMap.65 = type { %class.btAlignedObjectArray.44, %class.btAlignedObjectArray.44, %class.btAlignedObjectArray.0, %class.btAlignedObjectArray.48 }
%class.btHashPtr = type { %union.anon.134 }
%union.anon.134 = type { ptr }

; Function Attrs: mustprogress nounwind uwtable
define linkonce_odr dso_local noundef ptr @_ZNK9btHashPtr10getPointerEv(ptr noundef nonnull align 8 dereferenceable(8) %this) #1 comdat align 2 {
entry:
  %this.addr = alloca ptr, align 8
  store ptr %this, ptr %this.addr, align 8
  %this1 = load ptr, ptr %this.addr, align 8
  %0 = getelementptr inbounds %class.btHashPtr, ptr %this1, i32 0, i32 0
  %1 = load ptr, ptr %0, align 8
  ret ptr %1
}

; Function Attrs: mustprogress uwtable
define linkonce_odr dso_local noundef zeroext i1 @_ZNK9btHashPtr6equalsERKS_(ptr noundef nonnull align 8 dereferenceable(8) %this, ptr noundef nonnull align 8 dereferenceable(8) %other) #2 comdat align 2 {
entry:
  %this.addr = alloca ptr, align 8
  %other.addr = alloca ptr, align 8
  store ptr %this, ptr %this.addr, align 8
  store ptr %other, ptr %other.addr, align 8
  %this1 = load ptr, ptr %this.addr, align 8
  %call = call noundef ptr @_ZNK9btHashPtr10getPointerEv(ptr noundef nonnull align 8 dereferenceable(8) %this1)
  %0 = load ptr, ptr %other.addr, align 8
  %call2 = call noundef ptr @_ZNK9btHashPtr10getPointerEv(ptr noundef nonnull align 8 dereferenceable(8) %0)
  %cmp = icmp eq ptr %call, %call2
  ret i1 %cmp
}

; Function Attrs: mustprogress nounwind uwtable
define linkonce_odr dso_local noundef nonnull align 8 dereferenceable(8) ptr @_ZNK20btAlignedObjectArrayI9btHashPtrEixEi(ptr noundef nonnull align 8 dereferenceable(25) %this, i32 noundef %n) #1 comdat align 2 {
entry:
  %this.addr = alloca ptr, align 8
  %n.addr = alloca i32, align 4
  store ptr %this, ptr %this.addr, align 8
  store i32 %n, ptr %n.addr, align 4
  %this1 = load ptr, ptr %this.addr, align 8
  %m_data = getelementptr inbounds %class.btAlignedObjectArray.48, ptr %this1, i32 0, i32 5
  %0 = load ptr, ptr %m_data, align 8
  %1 = load i32, ptr %n.addr, align 4
  %idxprom = sext i32 %1 to i64
  %arrayidx = getelementptr inbounds %class.btHashPtr, ptr %0, i64 %idxprom
  ret ptr %arrayidx
}

; Function Attrs: mustprogress nounwind uwtable
define linkonce_odr dso_local noundef nonnull align 4 dereferenceable(4) ptr @_ZNK20btAlignedObjectArrayIiEixEi(ptr noundef nonnull align 8 dereferenceable(25) %this, i32 noundef %n) #1 comdat align 2 {
entry:
  %this.addr = alloca ptr, align 8
  %n.addr = alloca i32, align 4
  store ptr %this, ptr %this.addr, align 8
  store i32 %n, ptr %n.addr, align 4
  %this1 = load ptr, ptr %this.addr, align 8
  %m_data = getelementptr inbounds %class.btAlignedObjectArray.44, ptr %this1, i32 0, i32 5
  %0 = load ptr, ptr %m_data, align 8
  %1 = load i32, ptr %n.addr, align 4
  %idxprom = sext i32 %1 to i64
  %arrayidx = getelementptr inbounds i32, ptr %0, i64 %idxprom
  ret ptr %arrayidx
}

; Function Attrs: mustprogress nounwind uwtable
define linkonce_odr dso_local noundef i32 @_ZNK20btAlignedObjectArrayIiE4sizeEv(ptr noundef nonnull align 8 dereferenceable(25) %this) #1 comdat align 2 {
entry:
  %this.addr = alloca ptr, align 8
  store ptr %this, ptr %this.addr, align 8
  %this1 = load ptr, ptr %this.addr, align 8
  %m_size = getelementptr inbounds %class.btAlignedObjectArray.44, ptr %this1, i32 0, i32 2
  %0 = load i32, ptr %m_size, align 4
  ret i32 %0
}

; Function Attrs: mustprogress nounwind uwtable
define linkonce_odr dso_local noundef i32 @_ZNK20btAlignedObjectArrayIPKcE8capacityEv(ptr noundef nonnull align 8 dereferenceable(25) %this) #1 comdat align 2 {
entry:
  %this.addr = alloca ptr, align 8
  store ptr %this, ptr %this.addr, align 8
  %this1 = load ptr, ptr %this.addr, align 8
  %m_capacity = getelementptr inbounds %class.btAlignedObjectArray.60, ptr %this1, i32 0, i32 3
  %0 = load i32, ptr %m_capacity, align 8
  ret i32 %0
}

; Function Attrs: mustprogress nounwind uwtable
define linkonce_odr dso_local noundef i32 @_ZNK9btHashPtr7getHashEv(ptr noundef nonnull align 8 dereferenceable(8) %this) #1 comdat align 2 {
entry:
  %this.addr = alloca ptr, align 8
  %VOID_IS_8 = alloca i8, align 1
  %key = alloca i32, align 4
  store ptr %this, ptr %this.addr, align 8
  %this1 = load ptr, ptr %this.addr, align 8
  store i8 1, ptr %VOID_IS_8, align 1
  %0 = getelementptr inbounds %class.btHashPtr, ptr %this1, i32 0, i32 0
  %arrayidx = getelementptr inbounds [2 x i32], ptr %0, i64 0, i64 0
  %1 = load i32, ptr %arrayidx, align 8
  %2 = getelementptr inbounds %class.btHashPtr, ptr %this1, i32 0, i32 0
  %arrayidx2 = getelementptr inbounds [2 x i32], ptr %2, i64 0, i64 1
  %3 = load i32, ptr %arrayidx2, align 4
  %add = add i32 %1, %3
  store i32 %add, ptr %key, align 4
  %4 = load i32, ptr %key, align 4
  %shl = shl i32 %4, 15
  %not = xor i32 %shl, -1
  %5 = load i32, ptr %key, align 4
  %add3 = add i32 %5, %not
  store i32 %add3, ptr %key, align 4
  %6 = load i32, ptr %key, align 4
  %shr = lshr i32 %6, 10
  %7 = load i32, ptr %key, align 4
  %xor = xor i32 %7, %shr
  store i32 %xor, ptr %key, align 4
  %8 = load i32, ptr %key, align 4
  %shl4 = shl i32 %8, 3
  %9 = load i32, ptr %key, align 4
  %add5 = add i32 %9, %shl4
  store i32 %add5, ptr %key, align 4
  %10 = load i32, ptr %key, align 4
  %shr6 = lshr i32 %10, 6
  %11 = load i32, ptr %key, align 4
  %xor7 = xor i32 %11, %shr6
  store i32 %xor7, ptr %key, align 4
  %12 = load i32, ptr %key, align 4
  %shl8 = shl i32 %12, 11
  %not9 = xor i32 %shl8, -1
  %13 = load i32, ptr %key, align 4
  %add10 = add i32 %13, %not9
  store i32 %add10, ptr %key, align 4
  %14 = load i32, ptr %key, align 4
  %shr11 = lshr i32 %14, 16
  %15 = load i32, ptr %key, align 4
  %xor12 = xor i32 %15, %shr11
  store i32 %xor12, ptr %key, align 4
  %16 = load i32, ptr %key, align 4
  ret i32 %16
}

; Function Attrs: mustprogress nounwind uwtable
define linkonce_odr dso_local noundef nonnull align 8 dereferenceable(8) ptr @_ZNK20btAlignedObjectArrayIPKcEixEi(ptr noundef nonnull align 8 dereferenceable(25) %this, i32 noundef %n) #1 comdat align 2 {
entry:
  %this.addr = alloca ptr, align 8
  %n.addr = alloca i32, align 4
  store ptr %this, ptr %this.addr, align 8
  store i32 %n, ptr %n.addr, align 4
  %this1 = load ptr, ptr %this.addr, align 8
  %m_data = getelementptr inbounds %class.btAlignedObjectArray.60, ptr %this1, i32 0, i32 5
  %0 = load ptr, ptr %m_data, align 8
  %1 = load i32, ptr %n.addr, align 4
  %idxprom = sext i32 %1 to i64
  %arrayidx = getelementptr inbounds ptr, ptr %0, i64 %idxprom
  ret ptr %arrayidx
}

; Function Attrs: mustprogress uwtable
define linkonce_odr dso_local noundef i32 @_ZNK9btHashMapI9btHashPtrPKcE9findIndexERKS0_(ptr noundef nonnull align 8 dereferenceable(128) %this, ptr noundef nonnull align 8 dereferenceable(8) %key) #2 comdat align 2 {
entry:
  %retval = alloca i32, align 4
  %this.addr = alloca ptr, align 8
  %key.addr = alloca ptr, align 8
  %hash = alloca i32, align 4
  %index = alloca i32, align 4
  store ptr %this, ptr %this.addr, align 8
  store ptr %key, ptr %key.addr, align 8
  %this1 = load ptr, ptr %this.addr, align 8
  %0 = load ptr, ptr %key.addr, align 8
  %call = call noundef i32 @_ZNK9btHashPtr7getHashEv(ptr noundef nonnull align 8 dereferenceable(8) %0)
  %m_valueArray = getelementptr inbounds %class.btHashMap.59, ptr %this1, i32 0, i32 2
  %call2 = call noundef i32 @_ZNK20btAlignedObjectArrayIPKcE8capacityEv(ptr noundef nonnull align 8 dereferenceable(25) %m_valueArray)
  %sub = sub nsw i32 %call2, 1
  %and = and i32 %call, %sub
  store i32 %and, ptr %hash, align 4
  %1 = load i32, ptr %hash, align 4
  %m_hashTable = getelementptr inbounds %class.btHashMap.59, ptr %this1, i32 0, i32 0
  %call3 = call noundef i32 @_ZNK20btAlignedObjectArrayIiE4sizeEv(ptr noundef nonnull align 8 dereferenceable(25) %m_hashTable)
  %cmp = icmp uge i32 %1, %call3
  br i1 %cmp, label %if.then, label %if.end

if.then:                                          ; preds = %entry
  store i32 -1, ptr %retval, align 4
  br label %return

if.end:                                           ; preds = %entry
  %m_hashTable4 = getelementptr inbounds %class.btHashMap.59, ptr %this1, i32 0, i32 0
  %2 = load i32, ptr %hash, align 4
  %call5 = call noundef nonnull align 4 dereferenceable(4) ptr @_ZNK20btAlignedObjectArrayIiEixEi(ptr noundef nonnull align 8 dereferenceable(25) %m_hashTable4, i32 noundef %2)
  %3 = load i32, ptr %call5, align 4
  store i32 %3, ptr %index, align 4
  br label %while.cond

while.cond:                                       ; preds = %while.body, %if.end
  %4 = load i32, ptr %index, align 4
  %cmp6 = icmp ne i32 %4, -1
  br i1 %cmp6, label %land.rhs, label %land.end

land.rhs:                                         ; preds = %while.cond
  %5 = load ptr, ptr %key.addr, align 8
  %m_keyArray = getelementptr inbounds %class.btHashMap.59, ptr %this1, i32 0, i32 3
  %6 = load i32, ptr %index, align 4
  %call7 = call noundef nonnull align 8 dereferenceable(8) ptr @_ZNK20btAlignedObjectArrayI9btHashPtrEixEi(ptr noundef nonnull align 8 dereferenceable(25) %m_keyArray, i32 noundef %6)
  %call8 = call noundef zeroext i1 @_ZNK9btHashPtr6equalsERKS_(ptr noundef nonnull align 8 dereferenceable(8) %5, ptr noundef nonnull align 8 dereferenceable(8) %call7)
  %conv = zext i1 %call8 to i32
  %cmp9 = icmp eq i32 %conv, 0
  br label %land.end

land.end:                                         ; preds = %land.rhs, %while.cond
  %7 = phi i1 [ false, %while.cond ], [ %cmp9, %land.rhs ]
  br i1 %7, label %while.body, label %while.end

while.body:                                       ; preds = %land.end
  %m_next = getelementptr inbounds %class.btHashMap.59, ptr %this1, i32 0, i32 1
  %8 = load i32, ptr %index, align 4
  %call10 = call noundef nonnull align 4 dereferenceable(4) ptr @_ZNK20btAlignedObjectArrayIiEixEi(ptr noundef nonnull align 8 dereferenceable(25) %m_next, i32 noundef %8)
  %9 = load i32, ptr %call10, align 4
  store i32 %9, ptr %index, align 4
  br label %while.cond, !llvm.loop !77

while.end:                                        ; preds = %land.end
  %10 = load i32, ptr %index, align 4
  store i32 %10, ptr %retval, align 4
  br label %return

return:                                           ; preds = %while.end, %if.then
  %11 = load i32, ptr %retval, align 4
  ret i32 %11
}

; Function Attrs: mustprogress uwtable
define linkonce_odr dso_local noundef ptr @_ZNK9btHashMapI9btHashPtrPKcE4findERKS0_(ptr noundef nonnull align 8 dereferenceable(128) %this, ptr noundef nonnull align 8 dereferenceable(8) %key) #2 comdat align 2 {
entry:
  %retval = alloca ptr, align 8
  %this.addr = alloca ptr, align 8
  %key.addr = alloca ptr, align 8
  %index = alloca i32, align 4
  store ptr %this, ptr %this.addr, align 8
  store ptr %key, ptr %key.addr, align 8
  %this1 = load ptr, ptr %this.addr, align 8
  %0 = load ptr, ptr %key.addr, align 8
  %call = call noundef i32 @_ZNK9btHashMapI9btHashPtrPKcE9findIndexERKS0_(ptr noundef nonnull align 8 dereferenceable(128) %this1, ptr noundef nonnull align 8 dereferenceable(8) %0)
  store i32 %call, ptr %index, align 4
  %1 = load i32, ptr %index, align 4
  %cmp = icmp eq i32 %1, -1
  br i1 %cmp, label %if.then, label %if.end

if.then:                                          ; preds = %entry
  store ptr null, ptr %retval, align 8
  br label %return

if.end:                                           ; preds = %entry
  %m_valueArray = getelementptr inbounds %class.btHashMap.59, ptr %this1, i32 0, i32 2
  %2 = load i32, ptr %index, align 4
  %call2 = call noundef nonnull align 8 dereferenceable(8) ptr @_ZNK20btAlignedObjectArrayIPKcEixEi(ptr noundef nonnull align 8 dereferenceable(25) %m_valueArray, i32 noundef %2)
  store ptr %call2, ptr %retval, align 8
  br label %return

return:                                           ; preds = %if.end, %if.then
  %3 = load ptr, ptr %retval, align 8
  ret ptr %3
}

; Function Attrs: mustprogress nounwind uwtable
define linkonce_odr dso_local void @_ZN9btHashPtrC2EPKv(ptr noundef nonnull align 8 dereferenceable(8) %this, ptr noundef %ptr) unnamed_addr #1 comdat align 2 {
entry:
  %this.addr = alloca ptr, align 8
  %ptr.addr = alloca ptr, align 8
  store ptr %this, ptr %this.addr, align 8
  store ptr %ptr, ptr %ptr.addr, align 8
  %this1 = load ptr, ptr %this.addr, align 8
  %0 = getelementptr inbounds %class.btHashPtr, ptr %this1, i32 0, i32 0
  %1 = load ptr, ptr %ptr.addr, align 8
  store ptr %1, ptr %0, align 8
  ret void
}

; Function Attrs: mustprogress uwtable
define dso_local noundef ptr @_ZNK24btCollisionWorldImporter17getNameForPointerEPKv(ptr noundef nonnull align 8 dereferenceable(1336) %this, ptr noundef %ptr) #2 align 2 {
entry:
  %retval = alloca ptr, align 8
  %this.addr = alloca ptr, align 8
  %ptr.addr = alloca ptr, align 8
  %namePtr = alloca ptr, align 8
  %ref.tmp = alloca %class.btHashPtr, align 8
  store ptr %this, ptr %this.addr, align 8
  store ptr %ptr, ptr %ptr.addr, align 8
  %this1 = load ptr, ptr %this.addr, align 8
  %m_objectNameMap = getelementptr inbounds %class.btCollisionWorldImporter, ptr %this1, i32 0, i32 21
  %0 = load ptr, ptr %ptr.addr, align 8
  call void @_ZN9btHashPtrC2EPKv(ptr noundef nonnull align 8 dereferenceable(8) %ref.tmp, ptr noundef %0)
  %call = call noundef ptr @_ZNK9btHashMapI9btHashPtrPKcE4findERKS0_(ptr noundef nonnull align 8 dereferenceable(128) %m_objectNameMap, ptr noundef nonnull align 8 dereferenceable(8) %ref.tmp)
  store ptr %call, ptr %namePtr, align 8
  %1 = load ptr, ptr %namePtr, align 8
  %tobool = icmp ne ptr %1, null
  br i1 %tobool, label %land.lhs.true, label %if.end

land.lhs.true:                                    ; preds = %entry
  %2 = load ptr, ptr %namePtr, align 8
  %3 = load ptr, ptr %2, align 8
  %tobool2 = icmp ne ptr %3, null
  br i1 %tobool2, label %if.then, label %if.end

if.then:                                          ; preds = %land.lhs.true
  %4 = load ptr, ptr %namePtr, align 8
  %5 = load ptr, ptr %4, align 8
  store ptr %5, ptr %retval, align 8
  br label %return

if.end:                                           ; preds = %land.lhs.true, %entry
  store ptr null, ptr %retval, align 8
  br label %return

return:                                           ; preds = %if.end, %if.then
  %6 = load ptr, ptr %retval, align 8
  ret ptr %6
}