; Function Attrs: mustprogress nofree norecurse nosync nounwind willreturn memory(read, inaccessiblemem: none) uwtable
define dso_local noundef ptr @_ZNK24btCollisionWorldImporter17getNameForPointerEPKv(ptr nocapture noundef nonnull readonly align 8 dereferenceable(1336) %this, ptr noundef %ptr) local_unnamed_addr #13 align 2 {
entry:
  %0 = ptrtoint ptr %ptr to i64
  %ref.tmp.sroa.0.0.extract.trunc = trunc i64 %0 to i32
  %ref.tmp.sroa.0.4.extract.shift = lshr i64 %0, 32
  %ref.tmp.sroa.0.4.extract.trunc = trunc i64 %ref.tmp.sroa.0.4.extract.shift to i32
  %add.i.i.i = add i32 %ref.tmp.sroa.0.4.extract.trunc, %ref.tmp.sroa.0.0.extract.trunc
  %shl.i.i.i = shl i32 %add.i.i.i, 15
  %not.i.i.i = xor i32 %shl.i.i.i, -1
  %add3.i.i.i = add i32 %add.i.i.i, %not.i.i.i
  %shr.i.i.i = lshr i32 %add3.i.i.i, 10
  %xor.i.i.i = xor i32 %shr.i.i.i, %add3.i.i.i
  %add5.i.i.i = mul i32 %xor.i.i.i, 9
  %shr6.i.i.i = lshr i32 %add5.i.i.i, 6
  %xor7.i.i.i = xor i32 %shr6.i.i.i, %add5.i.i.i
  %shl8.i.i.i = shl i32 %xor7.i.i.i, 11
  %not9.i.i.i = xor i32 %shl8.i.i.i, -1
  %add10.i.i.i = add i32 %xor7.i.i.i, %not9.i.i.i
  %shr11.i.i.i = lshr i32 %add10.i.i.i, 16
  %xor12.i.i.i = xor i32 %shr11.i.i.i, %add10.i.i.i
  %m_capacity.i.i.i = getelementptr inbounds i8, ptr %this, i64 1024
  %1 = load i32, ptr %m_capacity.i.i.i, align 8
  %sub.i.i = add nsw i32 %1, -1
  %and.i.i = and i32 %sub.i.i, %xor12.i.i.i
  %m_size.i.i.i = getelementptr inbounds i8, ptr %this, i64 956
  %2 = load i32, ptr %m_size.i.i.i, align 4
  %cmp.not.i.i = icmp ult i32 %and.i.i, %2
  br i1 %cmp.not.i.i, label %if.end.i.i, label %if.end

if.end.i.i:                                       ; preds = %entry
  %m_data.i.i.i = getelementptr inbounds i8, ptr %this, i64 968
  %3 = load ptr, ptr %m_data.i.i.i, align 8
  %idxprom.i.i.i = sext i32 %and.i.i to i64
  %arrayidx.i.i.i = getelementptr inbounds i32, ptr %3, i64 %idxprom.i.i.i
  %index.012.i.i = load i32, ptr %arrayidx.i.i.i, align 4
  %cmp6.not13.i.i = icmp eq i32 %index.012.i.i, -1
  br i1 %cmp6.not13.i.i, label %if.end, label %land.rhs.lr.ph.i.i

land.rhs.lr.ph.i.i:                               ; preds = %if.end.i.i
  %m_data.i6.i.i = getelementptr inbounds i8, ptr %this, i64 1064
  %4 = load ptr, ptr %m_data.i6.i.i, align 8
  %m_data.i9.i.i = getelementptr inbounds i8, ptr %this, i64 1000
  %5 = load ptr, ptr %m_data.i9.i.i, align 8
  br label %land.rhs.i.i

land.rhs.i.i:                                     ; preds = %while.body.i.i, %land.rhs.lr.ph.i.i
  %index.014.i.i = phi i32 [ %index.012.i.i, %land.rhs.lr.ph.i.i ], [ %index.0.i.i, %while.body.i.i ]
  %idxprom.i7.i.i = sext i32 %index.014.i.i to i64
  %arrayidx.i8.i.i = getelementptr inbounds %class.btHashPtr, ptr %4, i64 %idxprom.i7.i.i
  %6 = load ptr, ptr %arrayidx.i8.i.i, align 8
  %cmp.i.i.i = icmp eq ptr %6, %ptr
  br i1 %cmp.i.i.i, label %_ZNK9btHashMapI9btHashPtrPKcE4findERKS0_.exit, label %while.body.i.i

while.body.i.i:                                   ; preds = %land.rhs.i.i
  %arrayidx.i11.i.i = getelementptr inbounds i32, ptr %5, i64 %idxprom.i7.i.i
  %index.0.i.i = load i32, ptr %arrayidx.i11.i.i, align 4
  %cmp6.not.i.i = icmp eq i32 %index.0.i.i, -1
  br i1 %cmp6.not.i.i, label %if.end, label %land.rhs.i.i, !llvm.loop !28

_ZNK9btHashMapI9btHashPtrPKcE4findERKS0_.exit:    ; preds = %land.rhs.i.i
  %m_data.i.i = getelementptr inbounds i8, ptr %this, i64 1032
  %7 = load ptr, ptr %m_data.i.i, align 8
  %tobool.not = icmp eq ptr %7, null
  br i1 %tobool.not, label %if.end, label %land.lhs.true

land.lhs.true:                                    ; preds = %_ZNK9btHashMapI9btHashPtrPKcE4findERKS0_.exit
  %arrayidx.i.i = getelementptr inbounds ptr, ptr %7, i64 %idxprom.i7.i.i
  %8 = load ptr, ptr %arrayidx.i.i, align 8
  %tobool2.not = icmp eq ptr %8, null
  br i1 %tobool2.not, label %if.end, label %return

if.end:                                           ; preds = %while.body.i.i, %if.end.i.i, %entry, %land.lhs.true, %_ZNK9btHashMapI9btHashPtrPKcE4findERKS0_.exit
  br label %return

return:                                           ; preds = %land.lhs.true, %if.end
  %retval.0 = phi ptr [ null, %if.end ], [ %8, %land.lhs.true ]
  ret ptr %retval.0
}